	.file	"task1.c"
	.section	.rodata
.LC0:
	.string	"TEST PASSED"
.LC1:
	.string	"HELLO CS354!"
	.text
	.globl	main
	.type	main, @function
main:
.LFB0:
	.cfi_startproc
	pushq	%rbp
	.cfi_def_cfa_offset 16
	.cfi_offset 6, -16
	movq	%rsp, %rbp
	.cfi_def_cfa_register 6
	subq	$16, %rsp
	movl	$5, -4(%rbp)
	cmpl	$1, -4(%rbp)
	jle	.L2
	movl	$.LC0, %edi
	call	puts
.L2:
	movl	$0, -8(%rbp)
	jmp	.L3
.L4:
	movl	$.LC1, %edi
	call	puts
	addl	$1, -8(%rbp)
.L3:
	cmpl	$9, -8(%rbp)
	jle	.L4
	movl	$0, %eax
	call	bar
	movl	$0, %eax
	leave
	.cfi_def_cfa 7, 8
	ret
	.cfi_endproc
.LFE0:
	.size	main, .-main
	.section	.rodata
.LC2:
	.string	"THIS IS FOO"
	.text
	.globl	foo
	.type	foo, @function
foo:
.LFB1:
	.cfi_startproc
	pushq	%rbp
	.cfi_def_cfa_offset 16
	.cfi_offset 6, -16
	movq	%rsp, %rbp
	.cfi_def_cfa_register 6
	movl	$.LC2, %edi
	call	puts
	nop
	popq	%rbp
	.cfi_def_cfa 7, 8
	ret
	.cfi_endproc
.LFE1:
	.size	foo, .-foo
	.section	.rodata
.LC3:
	.string	"THIS IS BAR"
	.text
	.globl	bar
	.type	bar, @function
bar:
.LFB2:
	.cfi_startproc
	pushq	%rbp
	.cfi_def_cfa_offset 16
	.cfi_offset 6, -16
	movq	%rsp, %rbp
	.cfi_def_cfa_register 6
	movl	$.LC3, %edi
	call	puts
	nop
	popq	%rbp
	.cfi_def_cfa 7, 8
	ret
	.cfi_endproc
.LFE2:
	.size	bar, .-bar
	.ident	"GCC: (Ubuntu 5.4.0-6ubuntu1~16.04.4) 5.4.0 20160609"
	.section	.note.GNU-stack,"",@progbits
